---
triple:          'arm64-apple-darwin'
binary-path:     grid_bfs
relocations:
  - { offset: 0x200EC, size: 0x8, addend: 0x0, symName: __ZStL8__ioinit, symObjAddr: 0xC1F3C, symBinAddr: 0x10000C000, symSize: 0x0 }
  - { offset: 0x20E2B, size: 0x8, addend: 0x0, symName: __GLOBAL__sub_I_grid_bfs.cpp, symObjAddr: 0x3000, symBinAddr: 0x100003080, symSize: 0x38 }
  - { offset: 0x20E43, size: 0x8, addend: 0x0, symName: __GLOBAL__sub_I_grid_bfs.cpp, symObjAddr: 0x3000, symBinAddr: 0x100003080, symSize: 0x38 }
  - { offset: 0x21A43, size: 0x8, addend: 0x0, symName: __ZNSt23mersenne_twister_engineIjLm32ELm624ELm397ELm31ELj2567483615ELm11ELj4294967295ELm7ELj2636928640ELm15ELj4022730752ELm18ELj1812433253EE11_M_gen_randEv, symObjAddr: 0x22E0, symBinAddr: 0x100002AE0, symSize: 0x12C }
  - { offset: 0x21C9D, size: 0x8, addend: 0x0, symName: __ZNSt19_UninitDestroyGuardIPNSt7__cxx1112basic_stringIcSt11char_traitsIcESaIcEEEvED1Ev, symObjAddr: 0x1FE4, symBinAddr: 0x1000027E4, symSize: 0x68 }
  - { offset: 0x22E64, size: 0x8, addend: 0x0, symName: __ZSteqIcSt11char_traitsIcESaIcEEbRKNSt7__cxx1112basic_stringIT_T0_T1_EEPKS5_, symObjAddr: 0x1F80, symBinAddr: 0x100002780, symSize: 0x64 }
  - { offset: 0x2356D, size: 0x8, addend: 0x0, symName: __ZNSt6vectorINSt7__cxx1112basic_stringIcSt11char_traitsIcESaIcEEESaIS5_EED1Ev, symObjAddr: 0x1F00, symBinAddr: 0x100002700, symSize: 0x80 }
  - { offset: 0x23BCA, size: 0x8, addend: 0x0, symName: _main, symObjAddr: 0x2D80, symBinAddr: 0x1000030C0, symSize: 0x278 }
  - { offset: 0x24104, size: 0x8, addend: 0x0, symName: __Z16run_sanity_checkv, symObjAddr: 0x204C, symBinAddr: 0x10000284C, symSize: 0x294 }
  - { offset: 0x251E8, size: 0x8, addend: 0x0, symName: __Z13print_summaryRKSt6vectorINSt7__cxx1112basic_stringIcSt11char_traitsIcESaIcEEESaIS5_EERK10RunSummaryRK14HeatmapSummaryRK17CongestionSummaryid, symObjAddr: 0x1350, symBinAddr: 0x100001B50, symSize: 0x738 }
  - { offset: 0x25D3C, size: 0x8, addend: 0x0, symName: __Z27compute_congestion_pressureRKSt6vectorIiSaIiEEiii, symObjAddr: 0xD8C, symBinAddr: 0x10000158C, symSize: 0x4F4 }
  - { offset: 0x26BB8, size: 0x8, addend: 0x0, symName: __Z17summarize_heatmapRKSt6vectorIiSaIiEEii, symObjAddr: 0xB6C, symBinAddr: 0x10000136C, symSize: 0x194 }
  - { offset: 0x26D4A, size: 0x8, addend: 0x0, symName: __Z16run_all_requestsRKSt6vectorINSt7__cxx1112basic_stringIcSt11char_traitsIcESaIcEEESaIS5_EERKS_I12RouteRequestSaISA_EERS_IiSaIiEE, symObjAddr: 0x1D90, symBinAddr: 0x100002590, symSize: 0x170 }
  - { offset: 0x27053, size: 0x8, addend: 0x0, symName: __Z17shortest_path_bfsRKSt6vectorINSt7__cxx1112basic_stringIcSt11char_traitsIcESaIcEEESaIS5_EERK12RouteRequestRS_IiSaIiEE, symObjAddr: 0x8E4, symBinAddr: 0x1000010E4, symSize: 0x288 }
  - { offset: 0x27FEE, size: 0x8, addend: 0x0, symName: __Z18format_route_labelB5cxx11RK12RouteRequesti, symObjAddr: 0x1AAC, symBinAddr: 0x1000022AC, symSize: 0x2E4 }
  - { offset: 0x28038, size: 0x8, addend: 0x0, symName: __Z18format_route_labelB5cxx11RK12RouteRequesti, symObjAddr: 0x1AAC, symBinAddr: 0x1000022AC, symSize: 0x2E4 }
  - { offset: 0x28077, size: 0x8, addend: 0x0, symName: __Z18format_route_labelB5cxx11RK12RouteRequesti, symObjAddr: 0x1AAC, symBinAddr: 0x1000022AC, symSize: 0x2E4 }
  - { offset: 0x280B1, size: 0x8, addend: 0x0, symName: __Z18format_route_labelB5cxx11RK12RouteRequesti, symObjAddr: 0x1AAC, symBinAddr: 0x1000022AC, symSize: 0x2E4 }
  - { offset: 0x280D8, size: 0x8, addend: 0x0, symName: __Z18format_route_labelB5cxx11RK12RouteRequesti, symObjAddr: 0x1AAC, symBinAddr: 0x1000022AC, symSize: 0x2E4 }
  - { offset: 0x28100, size: 0x8, addend: 0x0, symName: __Z18format_route_labelB5cxx11RK12RouteRequesti, symObjAddr: 0x1AAC, symBinAddr: 0x1000022AC, symSize: 0x2E4 }
  - { offset: 0x28128, size: 0x8, addend: 0x0, symName: __Z18format_route_labelB5cxx11RK12RouteRequesti, symObjAddr: 0x1AAC, symBinAddr: 0x1000022AC, symSize: 0x2E4 }
  - { offset: 0x2916F, size: 0x8, addend: 0x0, symName: __Z17generate_requestsRKSt6vectorINSt7__cxx1112basic_stringIcSt11char_traitsIcESaIcEEESaIS5_EEi, symObjAddr: 0x660, symBinAddr: 0x100000E60, symSize: 0x244 }
  - { offset: 0x2981E, size: 0x8, addend: 0x0, symName: __Z14next_open_cellRKSt6vectorINSt7__cxx1112basic_stringIcSt11char_traitsIcESaIcEEESaIS5_EERi, symObjAddr: 0x5A4, symBinAddr: 0x100000DA4, symSize: 0xBC }
  - { offset: 0x2990B, size: 0x8, addend: 0x0, symName: __Z13generate_gridB5cxx11ii, symObjAddr: 0x240C, symBinAddr: 0x100002C0C, symSize: 0x460 }
  - { offset: 0x2A917, size: 0x8, addend: 0x0, symName: __Z7is_openRKSt6vectorINSt7__cxx1112basic_stringIcSt11char_traitsIcESaIcEEESaIS5_EEii, symObjAddr: 0x588, symBinAddr: 0x100000D88, symSize: 0x1C }
  - { offset: 0x2A960, size: 0x8, addend: 0x0, symName: __Z7is_openRKSt6vectorINSt7__cxx1112basic_stringIcSt11char_traitsIcESaIcEEESaIS5_EEii, symObjAddr: 0x588, symBinAddr: 0x100000D88, symSize: 0x1C }
  - { offset: 0x2A982, size: 0x8, addend: 0x0, symName: __Z7is_openRKSt6vectorINSt7__cxx1112basic_stringIcSt11char_traitsIcESaIcEEESaIS5_EEii, symObjAddr: 0x588, symBinAddr: 0x100000D88, symSize: 0x1C }
  - { offset: 0x2A9A7, size: 0x8, addend: 0x0, symName: __Z7is_openRKSt6vectorINSt7__cxx1112basic_stringIcSt11char_traitsIcESaIcEEESaIS5_EEii, symObjAddr: 0x588, symBinAddr: 0x100000D88, symSize: 0x1C }
  - { offset: 0x2A9D5, size: 0x8, addend: 0x0, symName: __Z9in_boundsiiii, symObjAddr: 0x568, symBinAddr: 0x100000D68, symSize: 0x20 }
  - { offset: 0x2AA37, size: 0x8, addend: 0x0, symName: __Z8to_indexiii, symObjAddr: 0x560, symBinAddr: 0x100000D60, symSize: 0x8 }
  - { offset: 0x2AD18, size: 0x8, addend: 0x0, symName: __ZNSt7__cxx119to_stringEi, symObjAddr: 0x320, symBinAddr: 0x100000B20, symSize: 0x240 }
  - { offset: 0x2B463, size: 0x8, addend: 0x0, symName: __ZNSt12_Vector_baseIiSaIiEED2Ev.isra.0, symObjAddr: 0x0, symBinAddr: 0x100000800, symSize: 0x10 }
  - { offset: 0x2B481, size: 0x8, addend: 0x0, symName: __ZNSt12_Vector_baseIiSaIiEED2Ev.isra.0, symObjAddr: 0x0, symBinAddr: 0x100000800, symSize: 0x10 }
  - { offset: 0x2B57A, size: 0x8, addend: 0x0, symName: __ZNSt12_Vector_baseI12RouteRequestSaIS0_EED2Ev.isra.0, symObjAddr: 0x10, symBinAddr: 0x100000810, symSize: 0x10 }
  - { offset: 0x2B598, size: 0x8, addend: 0x0, symName: __ZNSt12_Vector_baseI12RouteRequestSaIS0_EED2Ev.isra.0, symObjAddr: 0x10, symBinAddr: 0x100000810, symSize: 0x10 }
  - { offset: 0x2B691, size: 0x8, addend: 0x0, symName: __ZNSt7__cxx1112basic_stringIcSt11char_traitsIcESaIcEEC1IS3_EEPKcRKS3_.isra.0, symObjAddr: 0x20, symBinAddr: 0x100000820, symSize: 0xAC }
  - { offset: 0x2BA5B, size: 0x8, addend: 0x0, symName: __ZNSt7__cxx1112basic_stringIcSt11char_traitsIcESaIcEE9_M_appendEPKcm.isra.0, symObjAddr: 0xCC, symBinAddr: 0x1000008CC, symSize: 0x254 }
  - { offset: 0x2C0C2, size: 0x8, addend: 0x0, symName: __Z14checksum_labelRKNSt7__cxx1112basic_stringIcSt11char_traitsIcESaIcEEE, symObjAddr: 0x8A4, symBinAddr: 0x1000010A4, symSize: 0x40 }
  - { offset: 0x2C118, size: 0x8, addend: 0x0, symName: __Z14checksum_labelRKNSt7__cxx1112basic_stringIcSt11char_traitsIcESaIcEEE, symObjAddr: 0x8A4, symBinAddr: 0x1000010A4, symSize: 0x40 }
  - { offset: 0x2C13E, size: 0x8, addend: 0x0, symName: __Z19next_pressure_valueiiiiiiiii, symObjAddr: 0xD00, symBinAddr: 0x100001500, symSize: 0x8C }
  - { offset: 0x2C1DF, size: 0x8, addend: 0x0, symName: __Z16count_open_cellsRKSt6vectorINSt7__cxx1112basic_stringIcSt11char_traitsIcESaIcEEESaIS5_EE, symObjAddr: 0x1280, symBinAddr: 0x100001A80, symSize: 0xD0 }
  - { offset: 0x2C235, size: 0x8, addend: 0x0, symName: __Z16count_open_cellsRKSt6vectorINSt7__cxx1112basic_stringIcSt11char_traitsIcESaIcEEESaIS5_EE, symObjAddr: 0x1280, symBinAddr: 0x100001A80, symSize: 0xD0 }
  - { offset: 0x2C259, size: 0x8, addend: 0x0, symName: __Z16count_open_cellsRKSt6vectorINSt7__cxx1112basic_stringIcSt11char_traitsIcESaIcEEESaIS5_EE, symObjAddr: 0x1280, symBinAddr: 0x100001A80, symSize: 0xD0 }
  - { offset: 0x2C370, size: 0x8, addend: 0x0, symName: __ZNSt7__cxx1112basic_stringIcSt11char_traitsIcESaIcEE10_M_disposeEv, symObjAddr: 0x1A88, symBinAddr: 0x100002288, symSize: 0x24 }
  - { offset: 0x2C392, size: 0x8, addend: 0x0, symName: __ZNSt7__cxx1112basic_stringIcSt11char_traitsIcESaIcEE10_M_disposeEv, symObjAddr: 0x1A88, symBinAddr: 0x100002288, symSize: 0x24 }
  - { offset: 0x2C3B6, size: 0x8, addend: 0x0, symName: __ZNSt7__cxx1112basic_stringIcSt11char_traitsIcESaIcEE10_M_disposeEv, symObjAddr: 0x1A88, symBinAddr: 0x100002288, symSize: 0x24 }
...
